target datalayout = "e-m:e-p270:32:32-p271:32:32-p272:64:64-i64:64-i128:128-f80:128-n8:16:32:64-S128"
target triple = "x86_64-pc-linux-gnu"

%struct.onas_rcvln = type { [5120 x i8], i32, ptr, i32, i64, ptr, ptr }

@.str.4 = private unnamed_addr constant [17 x i8] c"UNKNOWN COMMAND\0A\00", align 1
@.str.6 = private unnamed_addr constant [50 x i8] c"Command rejected by clamd (wrong clamd version?)\0A\00", align 1
@.str.7 = private unnamed_addr constant [27 x i8] c"Overlong reply from clamd\0A\00", align 1
@.str.8 = private unnamed_addr constant [21 x i8] c"Communication error\0A\00", align 1

; Function Attrs: nounwind uwtable
define dso_local i32 @onas_fd_recvln(ptr noundef %0, ptr noundef %1, ptr noundef %2, i64 noundef %3) #0 {
  %5 = alloca i32, align 4
  %6 = alloca ptr, align 8
  %7 = alloca ptr, align 8
  %8 = alloca ptr, align 8
  %9 = alloca i64, align 8
  %10 = alloca ptr, align 8
  %11 = alloca i32, align 4
  %12 = alloca i32, align 4
  store ptr %0, ptr %6, align 8, !tbaa !15
  store ptr %1, ptr %7, align 8, !tbaa !25
  store ptr %2, ptr %8, align 8, !tbaa !25
  store i64 %3, ptr %9, align 8, !tbaa !8
  call void @llvm.lifetime.start.p0(i64 8, ptr %10) #7
  br label %13

13:                                               ; preds = %206, %52, %4
  br label %14

14:                                               ; preds = %13
  %15 = load ptr, ptr %6, align 8, !tbaa !15
  %16 = getelementptr inbounds nuw %struct.onas_rcvln, ptr %15, i32 0, i32 4
  %17 = load i64, ptr %16, align 8, !tbaa !23
  %18 = icmp ne i64 %17, 0
  br i1 %18, label %84, label %19

19:                                               ; preds = %14
  %20 = load ptr, ptr %6, align 8, !tbaa !15
  %21 = getelementptr inbounds nuw %struct.onas_rcvln, ptr %20, i32 0, i32 1
  %22 = load i32, ptr %21, align 8, !tbaa !24
  %23 = load ptr, ptr %6, align 8, !tbaa !15
  %24 = getelementptr inbounds nuw %struct.onas_rcvln, ptr %23, i32 0, i32 5
  %25 = load ptr, ptr %24, align 8, !tbaa !21
  %26 = load ptr, ptr %6, align 8, !tbaa !15
  %27 = getelementptr inbounds nuw %struct.onas_rcvln, ptr %26, i32 0, i32 5
  %28 = load ptr, ptr %27, align 8, !tbaa !21
  %29 = load ptr, ptr %6, align 8, !tbaa !15
  %30 = getelementptr inbounds nuw %struct.onas_rcvln, ptr %29, i32 0, i32 0
  %31 = getelementptr inbounds [5120 x i8], ptr %30, i64 0, i64 0
  %32 = ptrtoint ptr %28 to i64
  %33 = ptrtoint ptr %31 to i64
  %34 = sub i64 %32, %33
  %35 = sub i64 5120, %34
  %36 = call i64 @recv(i32 noundef %22, ptr noundef %25, i64 noundef %35, i32 noundef 0)
  %37 = load ptr, ptr %6, align 8, !tbaa !15
  %38 = getelementptr inbounds nuw %struct.onas_rcvln, ptr %37, i32 0, i32 4
  store i64 %36, ptr %38, align 8, !tbaa !23
  %39 = load ptr, ptr %6, align 8, !tbaa !15
  %40 = getelementptr inbounds nuw %struct.onas_rcvln, ptr %39, i32 0, i32 4
  %41 = load i64, ptr %40, align 8, !tbaa !23
  %42 = icmp ule i64 %41, 0
  br i1 %42, label %43, label %83

43:                                               ; preds = %19
  %44 = load ptr, ptr %6, align 8, !tbaa !15
  %45 = getelementptr inbounds nuw %struct.onas_rcvln, ptr %44, i32 0, i32 4
  %46 = load i64, ptr %45, align 8, !tbaa !23
  %47 = icmp ne i64 %46, 0
  br i1 %47, label %48, label %55

48:                                               ; preds = %43
  %49 = call ptr @__errno_location() #8
  %50 = load i32, ptr %49, align 4, !tbaa !10
  %51 = icmp eq i32 %50, 4
  br i1 %51, label %52, label %55

52:                                               ; preds = %48
  %53 = load ptr, ptr %6, align 8, !tbaa !15
  %54 = getelementptr inbounds nuw %struct.onas_rcvln, ptr %53, i32 0, i32 4
  store i64 0, ptr %54, align 8, !tbaa !23
  br label %13

55:                                               ; preds = %48, %43
  %56 = load ptr, ptr %6, align 8, !tbaa !15
  %57 = getelementptr inbounds nuw %struct.onas_rcvln, ptr %56, i32 0, i32 4
  %58 = load i64, ptr %57, align 8, !tbaa !23
  %59 = icmp ne i64 %58, 0
  br i1 %59, label %68, label %60

60:                                               ; preds = %55
  %61 = load ptr, ptr %6, align 8, !tbaa !15
  %62 = getelementptr inbounds nuw %struct.onas_rcvln, ptr %61, i32 0, i32 5
  %63 = load ptr, ptr %62, align 8, !tbaa !21
  %64 = load ptr, ptr %6, align 8, !tbaa !15
  %65 = getelementptr inbounds nuw %struct.onas_rcvln, ptr %64, i32 0, i32 0
  %66 = getelementptr inbounds [5120 x i8], ptr %65, i64 0, i64 0
  %67 = icmp ne ptr %63, %66
  br i1 %67, label %68, label %82

68:                                               ; preds = %60, %55
  %69 = load ptr, ptr %6, align 8, !tbaa !15
  %70 = getelementptr inbounds nuw %struct.onas_rcvln, ptr %69, i32 0, i32 5
  %71 = load ptr, ptr %70, align 8, !tbaa !21
  store i8 0, ptr %71, align 1, !tbaa !27
  %72 = load ptr, ptr %6, align 8, !tbaa !15
  %73 = getelementptr inbounds nuw %struct.onas_rcvln, ptr %72, i32 0, i32 0
  %74 = getelementptr inbounds [5120 x i8], ptr %73, i64 0, i64 0
  %75 = call i32 @strcmp(ptr noundef %74, ptr noundef @.str.4) #9
  %76 = icmp ne i32 %75, 0
  br i1 %76, label %77, label %79

77:                                               ; preds = %68
  %78 = call i32 (i32, ptr, ...) @logg(i32 noundef 5, ptr noundef @.str.8)
  br label %81

79:                                               ; preds = %68
  %80 = call i32 (i32, ptr, ...) @logg(i32 noundef 5, ptr noundef @.str.6)
  br label %81

81:                                               ; preds = %79, %77
  store i32 -1, ptr %5, align 4
  store i32 1, ptr %11, align 4
  br label %207

82:                                               ; preds = %60
  store i32 0, ptr %5, align 4
  store i32 1, ptr %11, align 4
  br label %207

83:                                               ; preds = %19
  br label %84

84:                                               ; preds = %83, %14
  %85 = load ptr, ptr %6, align 8, !tbaa !15
  %86 = getelementptr inbounds nuw %struct.onas_rcvln, ptr %85, i32 0, i32 5
  %87 = load ptr, ptr %86, align 8, !tbaa !21
  %88 = load ptr, ptr %6, align 8, !tbaa !15
  %89 = getelementptr inbounds nuw %struct.onas_rcvln, ptr %88, i32 0, i32 4
  %90 = load i64, ptr %89, align 8, !tbaa !23
  %91 = call ptr @memchr(ptr noundef %87, i32 noundef 0, i64 noundef %90) #9
  store ptr %91, ptr %10, align 8, !tbaa !28
  %92 = icmp ne ptr %91, null
  br i1 %92, label %93, label %145

93:                                               ; preds = %84
  call void @llvm.lifetime.start.p0(i64 4, ptr %12) #7
  store i32 0, ptr %12, align 4, !tbaa !10
  %94 = load ptr, ptr %10, align 8, !tbaa !28
  %95 = getelementptr inbounds nuw i8, ptr %94, i32 1
  store ptr %95, ptr %10, align 8, !tbaa !28
  %96 = load ptr, ptr %10, align 8, !tbaa !28
  %97 = load ptr, ptr %6, align 8, !tbaa !15
  %98 = getelementptr inbounds nuw %struct.onas_rcvln, ptr %97, i32 0, i32 5
  %99 = load ptr, ptr %98, align 8, !tbaa !21
  %100 = ptrtoint ptr %96 to i64
  %101 = ptrtoint ptr %99 to i64
  %102 = sub i64 %100, %101
  %103 = load ptr, ptr %6, align 8, !tbaa !15
  %104 = getelementptr inbounds nuw %struct.onas_rcvln, ptr %103, i32 0, i32 4
  %105 = load i64, ptr %104, align 8, !tbaa !23
  %106 = sub i64 %105, %102
  store i64 %106, ptr %104, align 8, !tbaa !23
  %107 = load ptr, ptr %6, align 8, !tbaa !15
  %108 = getelementptr inbounds nuw %struct.onas_rcvln, ptr %107, i32 0, i32 6
  %109 = load ptr, ptr %108, align 8, !tbaa !22
  %110 = load ptr, ptr %7, align 8, !tbaa !25
  store ptr %109, ptr %110, align 8, !tbaa !28
  %111 = load ptr, ptr %8, align 8, !tbaa !25
  %112 = icmp ne ptr %111, null
  br i1 %112, label %113, label %116

113:                                              ; preds = %93
  %114 = load ptr, ptr %10, align 8, !tbaa !28
  %115 = load ptr, ptr %8, align 8, !tbaa !25
  store ptr %114, ptr %115, align 8, !tbaa !28
  br label %116

116:                                              ; preds = %113, %93
  %117 = load ptr, ptr %10, align 8, !tbaa !28
  %118 = load ptr, ptr %6, align 8, !tbaa !15
  %119 = getelementptr inbounds nuw %struct.onas_rcvln, ptr %118, i32 0, i32 6
  %120 = load ptr, ptr %119, align 8, !tbaa !22
  %121 = ptrtoint ptr %117 to i64
  %122 = ptrtoint ptr %120 to i64
  %123 = sub i64 %121, %122
  %124 = trunc i64 %123 to i32
  store i32 %124, ptr %12, align 4, !tbaa !10
  %125 = load ptr, ptr %6, align 8, !tbaa !15
  %126 = getelementptr inbounds nuw %struct.onas_rcvln, ptr %125, i32 0, i32 4
  %127 = load i64, ptr %126, align 8, !tbaa !23
  %128 = icmp ne i64 %127, 0
  br i1 %128, label %129, label %135

129:                                              ; preds = %116
  %130 = load ptr, ptr %10, align 8, !tbaa !28
  %131 = load ptr, ptr %6, align 8, !tbaa !15
  %132 = getelementptr inbounds nuw %struct.onas_rcvln, ptr %131, i32 0, i32 5
  store ptr %130, ptr %132, align 8, !tbaa !21
  %133 = load ptr, ptr %6, align 8, !tbaa !15
  %134 = getelementptr inbounds nuw %struct.onas_rcvln, ptr %133, i32 0, i32 6
  store ptr %130, ptr %134, align 8, !tbaa !22
  br label %143

135:                                              ; preds = %116
  %136 = load ptr, ptr %6, align 8, !tbaa !15
  %137 = getelementptr inbounds nuw %struct.onas_rcvln, ptr %136, i32 0, i32 0
  %138 = getelementptr inbounds [5120 x i8], ptr %137, i64 0, i64 0
  %139 = load ptr, ptr %6, align 8, !tbaa !15
  %140 = getelementptr inbounds nuw %struct.onas_rcvln, ptr %139, i32 0, i32 5
  store ptr %138, ptr %140, align 8, !tbaa !21
  %141 = load ptr, ptr %6, align 8, !tbaa !15
  %142 = getelementptr inbounds nuw %struct.onas_rcvln, ptr %141, i32 0, i32 6
  store ptr %138, ptr %142, align 8, !tbaa !22
  br label %143

143:                                              ; preds = %135, %129
  %144 = load i32, ptr %12, align 4, !tbaa !10
  store i32 %144, ptr %5, align 4
  store i32 1, ptr %11, align 4
  call void @llvm.lifetime.end.p0(i64 4, ptr %12) #7
  br label %207

145:                                              ; preds = %84
  %146 = load ptr, ptr %6, align 8, !tbaa !15
  %147 = getelementptr inbounds nuw %struct.onas_rcvln, ptr %146, i32 0, i32 5
  %148 = load ptr, ptr %147, align 8, !tbaa !21
  %149 = load ptr, ptr %6, align 8, !tbaa !15
  %150 = getelementptr inbounds nuw %struct.onas_rcvln, ptr %149, i32 0, i32 6
  %151 = load ptr, ptr %150, align 8, !tbaa !22
  %152 = ptrtoint ptr %148 to i64
  %153 = ptrtoint ptr %151 to i64
  %154 = sub i64 %152, %153
  %155 = load ptr, ptr %6, align 8, !tbaa !15
  %156 = getelementptr inbounds nuw %struct.onas_rcvln, ptr %155, i32 0, i32 4
  %157 = load i64, ptr %156, align 8, !tbaa !23
  %158 = add i64 %157, %154
  store i64 %158, ptr %156, align 8, !tbaa !23
  %159 = load ptr, ptr %10, align 8, !tbaa !28
  %160 = icmp ne ptr %159, null
  br i1 %160, label %168, label %161

161:                                              ; preds = %145
  %162 = load ptr, ptr %6, align 8, !tbaa !15
  %163 = getelementptr inbounds nuw %struct.onas_rcvln, ptr %162, i32 0, i32 4
  %164 = load i64, ptr %163, align 8, !tbaa !23
  %165 = icmp eq i64 %164, 5120
  br i1 %165, label %166, label %168

166:                                              ; preds = %161
  %167 = call i32 (i32, ptr, ...) @logg(i32 noundef 5, ptr noundef @.str.7)
  store i32 -1, ptr %5, align 4
  store i32 1, ptr %11, align 4
  br label %207

168:                                              ; preds = %161, %145
  %169 = load ptr, ptr %10, align 8, !tbaa !28
  %170 = icmp ne ptr %169, null
  br i1 %170, label %206, label %171

171:                                              ; preds = %168
  %172 = load ptr, ptr %6, align 8, !tbaa !15
  %173 = getelementptr inbounds nuw %struct.onas_rcvln, ptr %172, i32 0, i32 0
  %174 = getelementptr inbounds [5120 x i8], ptr %173, i64 0, i64 0
  %175 = load ptr, ptr %6, align 8, !tbaa !15
  %176 = getelementptr inbounds nuw %struct.onas_rcvln, ptr %175, i32 0, i32 6
  %177 = load ptr, ptr %176, align 8, !tbaa !22
  %178 = icmp ne ptr %174, %177
  br i1 %178, label %179, label %194

179:                                              ; preds = %171
  %180 = load ptr, ptr %6, align 8, !tbaa !15
  %181 = getelementptr inbounds nuw %struct.onas_rcvln, ptr %180, i32 0, i32 0
  %182 = getelementptr inbounds [5120 x i8], ptr %181, i64 0, i64 0
  %183 = load ptr, ptr %6, align 8, !tbaa !15
  %184 = getelementptr inbounds nuw %struct.onas_rcvln, ptr %183, i32 0, i32 6
  %185 = load ptr, ptr %184, align 8, !tbaa !22
  %186 = load ptr, ptr %6, align 8, !tbaa !15
  %187 = getelementptr inbounds nuw %struct.onas_rcvln, ptr %186, i32 0, i32 4
  %188 = load i64, ptr %187, align 8, !tbaa !23
  call void @llvm.memmove.p0.p0.i64(ptr align 8 %182, ptr align 1 %185, i64 %188, i1 false)
  %189 = load ptr, ptr %6, align 8, !tbaa !15
  %190 = getelementptr inbounds nuw %struct.onas_rcvln, ptr %189, i32 0, i32 0
  %191 = getelementptr inbounds [5120 x i8], ptr %190, i64 0, i64 0
  %192 = load ptr, ptr %6, align 8, !tbaa !15
  %193 = getelementptr inbounds nuw %struct.onas_rcvln, ptr %192, i32 0, i32 6
  store ptr %191, ptr %193, align 8, !tbaa !22
  br label %194

194:                                              ; preds = %179, %171
  %195 = load ptr, ptr %6, align 8, !tbaa !15
  %196 = getelementptr inbounds nuw %struct.onas_rcvln, ptr %195, i32 0, i32 6
  %197 = load ptr, ptr %196, align 8, !tbaa !22
  %198 = load ptr, ptr %6, align 8, !tbaa !15
  %199 = getelementptr inbounds nuw %struct.onas_rcvln, ptr %198, i32 0, i32 4
  %200 = load i64, ptr %199, align 8, !tbaa !23
  %201 = getelementptr inbounds nuw i8, ptr %197, i64 %200
  %202 = load ptr, ptr %6, align 8, !tbaa !15
  %203 = getelementptr inbounds nuw %struct.onas_rcvln, ptr %202, i32 0, i32 5
  store ptr %201, ptr %203, align 8, !tbaa !21
  %204 = load ptr, ptr %6, align 8, !tbaa !15
  %205 = getelementptr inbounds nuw %struct.onas_rcvln, ptr %204, i32 0, i32 4
  store i64 0, ptr %205, align 8, !tbaa !23
  br label %206

206:                                              ; preds = %194, %168
  br label %13

207:                                              ; preds = %166, %143, %82, %81
  call void @llvm.lifetime.end.p0(i64 8, ptr %10) #7
  %208 = load i32, ptr %5, align 4
  ret i32 %208
}