; Function Attrs: nounwind uwtable
define dso_local i32 @onas_fd_recvln(ptr noundef %0, ptr noundef writeonly captures(none) %1, ptr noundef writeonly %2, i64 noundef %3) local_unnamed_addr #0 {
  %5 = getelementptr inbounds nuw i8, ptr %0, i64 5144
  %6 = getelementptr inbounds nuw i8, ptr %0, i64 5120
  %7 = getelementptr inbounds nuw i8, ptr %0, i64 5152
  %8 = ptrtoint ptr %0 to i64
  %.neg = add i64 %8, 5120
  %9 = getelementptr inbounds nuw i8, ptr %0, i64 5160
  %.pre = load i64, ptr %5, align 8, !tbaa !20
  %.pre83.pre = load ptr, ptr %7, align 8, !tbaa !18
  br label %10

10:                                               ; preds = %52, %4
  %.pre83 = phi ptr [ %55, %52 ], [ %.pre83.pre, %4 ]
  %11 = phi i64 [ 0, %52 ], [ %.pre, %4 ]
  %.not = icmp eq i64 %11, 0
  br i1 %.not, label %12, label %._crit_edge

12:                                               ; preds = %10
  %13 = load i32, ptr %6, align 8, !tbaa !21
  %14 = ptrtoint ptr %.pre83 to i64
  %15 = sub i64 %.neg, %14
  %16 = tail call i64 @recv(i32 noundef %13, ptr noundef %.pre83, i64 noundef %15, i32 noundef 0) #9
  store i64 %16, ptr %5, align 8, !tbaa !20
  %17 = icmp eq i64 %16, 0
  %18 = load ptr, ptr %7, align 8, !tbaa !18
  br i1 %17, label %19, label %._crit_edge

19:                                               ; preds = %12
  %.not57 = icmp eq ptr %18, %0
  br i1 %.not57, label %56, label %20

20:                                               ; preds = %19
  store i8 0, ptr %18, align 1, !tbaa !22
  %21 = tail call i32 @strcmp(ptr noundef nonnull dereferenceable(1) %0, ptr noundef nonnull dereferenceable(17) @.str.4) #11
  %.not58 = icmp eq i32 %21, 0
  br i1 %.not58, label %24, label %22

22:                                               ; preds = %20
  %23 = tail call i32 (i32, ptr, ...) @logg(i32 noundef 5, ptr noundef nonnull @.str.8) #9
  br label %56

24:                                               ; preds = %20
  %25 = tail call i32 (i32, ptr, ...) @logg(i32 noundef 5, ptr noundef nonnull @.str.6) #9
  br label %56

._crit_edge:                                      ; preds = %12, %10
  %26 = phi i64 [ %11, %10 ], [ %16, %12 ]
  %27 = phi ptr [ %.pre83, %10 ], [ %18, %12 ]
  %28 = tail call ptr @memchr(ptr noundef nonnull dereferenceable(1) %27, i32 noundef 0, i64 noundef %26) #11
  %.not59 = icmp eq ptr %28, null
  br i1 %.not59, label %41, label %29

29:                                               ; preds = %._crit_edge
  %30 = getelementptr inbounds nuw i8, ptr %28, i64 1
  %31 = ptrtoint ptr %30 to i64
  %32 = ptrtoint ptr %27 to i64
  %.neg61 = sub i64 %32, %31
  %33 = add i64 %.neg61, %26
  store i64 %33, ptr %5, align 8, !tbaa !20
  %34 = load ptr, ptr %9, align 8, !tbaa !19
  store ptr %34, ptr %1, align 8, !tbaa !23
  %.not62 = icmp eq ptr %2, null
  br i1 %.not62, label %36, label %35

35:                                               ; preds = %29
  store ptr %30, ptr %2, align 8, !tbaa !23
  %.pre84 = load ptr, ptr %9, align 8, !tbaa !19
  br label %36

36:                                               ; preds = %35, %29
  %37 = phi ptr [ %.pre84, %35 ], [ %34, %29 ]
  %38 = ptrtoint ptr %37 to i64
  %39 = sub i64 %31, %38
  %40 = trunc i64 %39 to i32
  %.not63 = icmp eq i64 %33, 0
  %. = select i1 %.not63, ptr %0, ptr %30
  store ptr %., ptr %7, align 8, !tbaa !18
  store ptr %., ptr %9, align 8, !tbaa !19
  br label %56

41:                                               ; preds = %._crit_edge
  %42 = load ptr, ptr %9, align 8, !tbaa !19
  %43 = ptrtoint ptr %27 to i64
  %44 = ptrtoint ptr %42 to i64
  %45 = sub i64 %43, %44
  %46 = add i64 %45, %26
  store i64 %46, ptr %5, align 8, !tbaa !20
  %47 = icmp eq i64 %46, 5120
  br i1 %47, label %48, label %50

48:                                               ; preds = %41
  %49 = tail call i32 (i32, ptr, ...) @logg(i32 noundef 5, ptr noundef nonnull @.str.7) #9
  br label %56

50:                                               ; preds = %41
  %.not60 = icmp eq ptr %0, %42
  br i1 %.not60, label %52, label %51

51:                                               ; preds = %50
  tail call void @llvm.memmove.p0.p0.i64(ptr nonnull align 8 %0, ptr align 1 %42, i64 %46, i1 false)
  store ptr %0, ptr %9, align 8, !tbaa !19
  %.pre85 = load i64, ptr %5, align 8, !tbaa !20
  br label %52

52:                                               ; preds = %51, %50
  %53 = phi i64 [ %.pre85, %51 ], [ %46, %50 ]
  %54 = phi ptr [ %0, %51 ], [ %42, %50 ]
  %55 = getelementptr inbounds nuw i8, ptr %54, i64 %53
  store ptr %55, ptr %7, align 8, !tbaa !18
  store i64 0, ptr %5, align 8, !tbaa !20
  br label %10

56:                                               ; preds = %19, %22, %24, %48, %36
  %.0 = phi i32 [ %40, %36 ], [ -1, %48 ], [ -1, %24 ], [ -1, %22 ], [ 0, %19 ]
  ret i32 %.0
}